target datalayout = "e-m:e-p270:32:32-p271:32:32-p272:64:64-i64:64-i128:128-f80:128-n8:16:32:64-S128"
target triple = "x86_64-pc-linux-gnu"

%"struct.memarena::arena_chunk" = type { ptr, i64, i64 }
%class.memarena = type { %"struct.memarena::arena_chunk", ptr, i32, i64, i64 }
%"class.memarena::chunk_iterator" = type <{ ptr, i32, [4 x i8] }>

; Function Attrs: mustprogress nounwind uwtable
define noundef ptr @_ZNK8memarena14chunk_iterator7currentEPm(ptr noundef nonnull align 8 dereferenceable(12) %0, ptr noundef %1) #2 align 2 {
  %3 = alloca ptr, align 8
  %4 = alloca ptr, align 8
  %5 = alloca ptr, align 8
  store ptr %0, ptr %4, align 8, !tbaa !35
  store ptr %1, ptr %5, align 8, !tbaa !32
  %6 = load ptr, ptr %4, align 8
  %7 = getelementptr inbounds nuw %"class.memarena::chunk_iterator", ptr %6, i32 0, i32 1
  %8 = load i32, ptr %7, align 8, !tbaa !37
  %9 = icmp slt i32 %8, 0
  br i1 %9, label %10, label %22

10:                                               ; preds = %2
  %11 = getelementptr inbounds nuw %"class.memarena::chunk_iterator", ptr %6, i32 0, i32 0
  %12 = load ptr, ptr %11, align 8, !tbaa !39
  %13 = getelementptr inbounds nuw %class.memarena, ptr %12, i32 0, i32 0
  %14 = getelementptr inbounds nuw %"struct.memarena::arena_chunk", ptr %13, i32 0, i32 1
  %15 = load i64, ptr %14, align 8, !tbaa !31
  %16 = load ptr, ptr %5, align 8, !tbaa !32
  store i64 %15, ptr %16, align 8, !tbaa !9
  %17 = getelementptr inbounds nuw %"class.memarena::chunk_iterator", ptr %6, i32 0, i32 0
  %18 = load ptr, ptr %17, align 8, !tbaa !39
  %19 = getelementptr inbounds nuw %class.memarena, ptr %18, i32 0, i32 0
  %20 = getelementptr inbounds nuw %"struct.memarena::arena_chunk", ptr %19, i32 0, i32 0
  %21 = load ptr, ptr %20, align 8, !tbaa !23
  store ptr %21, ptr %3, align 8
  br label %55

22:                                               ; preds = %2
  %23 = getelementptr inbounds nuw %"class.memarena::chunk_iterator", ptr %6, i32 0, i32 1
  %24 = load i32, ptr %23, align 8, !tbaa !37
  %25 = getelementptr inbounds nuw %"class.memarena::chunk_iterator", ptr %6, i32 0, i32 0
  %26 = load ptr, ptr %25, align 8, !tbaa !39
  %27 = getelementptr inbounds nuw %class.memarena, ptr %26, i32 0, i32 2
  %28 = load i32, ptr %27, align 8, !tbaa !21
  %29 = icmp slt i32 %24, %28
  br i1 %29, label %30, label %52

30:                                               ; preds = %22
  %31 = getelementptr inbounds nuw %"class.memarena::chunk_iterator", ptr %6, i32 0, i32 0
  %32 = load ptr, ptr %31, align 8, !tbaa !39
  %33 = getelementptr inbounds nuw %class.memarena, ptr %32, i32 0, i32 1
  %34 = load ptr, ptr %33, align 8, !tbaa !14
  %35 = getelementptr inbounds nuw %"class.memarena::chunk_iterator", ptr %6, i32 0, i32 1
  %36 = load i32, ptr %35, align 8, !tbaa !37
  %37 = sext i32 %36 to i64
  %38 = getelementptr inbounds %"struct.memarena::arena_chunk", ptr %34, i64 %37
  %39 = getelementptr inbounds nuw %"struct.memarena::arena_chunk", ptr %38, i32 0, i32 1
  %40 = load i64, ptr %39, align 8, !tbaa !26
  %41 = load ptr, ptr %5, align 8, !tbaa !32
  store i64 %40, ptr %41, align 8, !tbaa !9
  %42 = getelementptr inbounds nuw %"class.memarena::chunk_iterator", ptr %6, i32 0, i32 0
  %43 = load ptr, ptr %42, align 8, !tbaa !39
  %44 = getelementptr inbounds nuw %class.memarena, ptr %43, i32 0, i32 1
  %45 = load ptr, ptr %44, align 8, !tbaa !14
  %46 = getelementptr inbounds nuw %"class.memarena::chunk_iterator", ptr %6, i32 0, i32 1
  %47 = load i32, ptr %46, align 8, !tbaa !37
  %48 = sext i32 %47 to i64
  %49 = getelementptr inbounds %"struct.memarena::arena_chunk", ptr %45, i64 %48
  %50 = getelementptr inbounds nuw %"struct.memarena::arena_chunk", ptr %49, i32 0, i32 0
  %51 = load ptr, ptr %50, align 8, !tbaa !25
  store ptr %51, ptr %3, align 8
  br label %55

52:                                               ; preds = %22
  br label %53

53:                                               ; preds = %52
  %54 = load ptr, ptr %5, align 8, !tbaa !32
  store i64 0, ptr %54, align 8, !tbaa !9
  store ptr null, ptr %3, align 8
  br label %55

55:                                               ; preds = %53, %30, %10
  %56 = load ptr, ptr %3, align 8
  ret ptr %56
}