; Function Attrs: mustprogress nofree norecurse nosync nounwind willreturn memory(read, argmem: readwrite, inaccessiblemem: none) uwtable
define noundef ptr @_ZNK8memarena14chunk_iterator7currentEPm(ptr noundef nonnull readonly align 8 captures(none) dereferenceable(12) %0, ptr noundef writeonly captures(none) initializes((0, 8)) %1) local_unnamed_addr #4 align 2 {
  %3 = getelementptr inbounds nuw i8, ptr %0, i64 8
  %4 = load i32, ptr %3, align 8, !tbaa !27
  %5 = icmp slt i32 %4, 0
  %6 = load ptr, ptr %0, align 8, !tbaa !30
  br i1 %5, label %7, label %11

7:                                                ; preds = %2
  %8 = getelementptr inbounds nuw i8, ptr %6, i64 8
  %9 = load i64, ptr %8, align 8, !tbaa !20
  store i64 %9, ptr %1, align 8, !tbaa !23
  %10 = load ptr, ptr %6, align 8, !tbaa !16
  br label %24

11:                                               ; preds = %2
  %12 = getelementptr inbounds nuw i8, ptr %6, i64 32
  %13 = load i32, ptr %12, align 8, !tbaa !14
  %14 = icmp slt i32 %4, %13
  br i1 %14, label %15, label %23

15:                                               ; preds = %11
  %16 = getelementptr inbounds nuw i8, ptr %6, i64 24
  %17 = load ptr, ptr %16, align 8, !tbaa !4
  %18 = zext nneg i32 %4 to i64
  %19 = getelementptr inbounds nuw %"struct.memarena::arena_chunk", ptr %17, i64 %18, i32 1
  %20 = load i64, ptr %19, align 8, !tbaa !31
  store i64 %20, ptr %1, align 8, !tbaa !23
  %21 = getelementptr inbounds nuw %"struct.memarena::arena_chunk", ptr %17, i64 %18
  %22 = load ptr, ptr %21, align 8, !tbaa !17
  br label %24

23:                                               ; preds = %11
  store i64 0, ptr %1, align 8, !tbaa !23
  br label %24

24:                                               ; preds = %23, %15, %7
  %.0 = phi ptr [ %10, %7 ], [ %22, %15 ], [ null, %23 ]
  ret ptr %.0
}